(dp1
S'feat_name'
p2
(lp3
S'coach.c-score'
p4
aS'coach.clustersize'
p5
aS'coach.binding-site-residue'
p6
aS'tm-site.c-score'
p7
aS'tm-site.clustersize'
p8
aS'tm-site.binding-site-residue'
p9
aS's-site.c-score'
p10
aS's-site.clustersize'
p11
aS's-site.binding-site-residue'
p12
aS'cofactor.c-score'
p13
aS'cofactor.TM-score'
p14
aS'cofactor.RMSD'
p15
aS'cofactor.IDEN'
p16
aS'cofactor.Cov'
p17
aS'cofactor.BS-score'
p18
aS'cofactor.binding-site-residue'
p19
aS'findsite.c-score'
p20
aS'findsite.clustersize'
p21
aS'findsite.binding-site-residue'
p22
aS'concavity.c-score'
p23
aS'concavity.binding-site-residue'
p24
as.