(dp1
S'feat_name'
p2
(lp3
S'dockingEnergy'
p4
aS'mmgbsaEnergy'
p5
aS'avg_gauss1'
p6
aS'avg_gauss2'
p7
aS'avg_repulsion'
p8
aS'avg_hydrophobic'
p9
aS'avg_hydrogen'
p10
aS'Model1.gauss1'
p11
aS'Model1.gauss2'
p12
aS'Model1.repulsion'
p13
aS'Model1.hydrophobic'
p14
aS'Model1.hydrogen'
p15
as.